; Function Attrs: nounwind sspstrong uwtable
define dso_local void @ahci_uninit(ptr noundef readonly captures(none) %0) local_unnamed_addr #0 {
  %2 = getelementptr inbounds nuw i8, ptr %0, i64 584
  %3 = load i32, ptr %2, align 8
  %.not = icmp eq i32 %3, 0
  br i1 %.not, label %._crit_edge, label %.lr.ph

.lr.ph:                                           ; preds = %1, %.lr.ph
  %.012 = phi i32 [ %10, %.lr.ph ], [ 0, %1 ]
  %4 = load ptr, ptr %0, align 16
  %5 = sext i32 %.012 to i64
  %6 = getelementptr inbounds %struct.AHCIDevice, ptr %4, i64 %5
  %7 = getelementptr inbounds nuw i8, ptr %6, i64 192
  tail call void @ide_exit(ptr noundef nonnull %7) #14
  %8 = getelementptr inbounds nuw i8, ptr %6, i64 1176
  tail call void @ide_exit(ptr noundef nonnull %8) #14
  %9 = getelementptr inbounds nuw i8, ptr %6, i64 56
  tail call void @object_unparent(ptr noundef nonnull %9) #14
  %10 = add nuw i32 %.012, 1
  %11 = load i32, ptr %2, align 8
  %12 = icmp ult i32 %10, %11
  br i1 %12, label %.lr.ph, label %._crit_edge, !llvm.loop !8

._crit_edge:                                      ; preds = %.lr.ph, %1
  %13 = load ptr, ptr %0, align 16
  tail call void @g_free(ptr noundef %13) #14
  ret void
}